; ModuleID = '49/986.c'
source_filename = "49/986.c"
target datalayout = "e-m:e-p270:32:32-p271:32:32-p272:64:64-i64:64-f80:128-n8:16:32:64-S128"
target triple = "x86_64-pc-linux-gnu"

@.str = private unnamed_addr constant [4 x i8] c"%s\0A\00", align 1

; Function Attrs: noinline nounwind uwtable
define dso_local i32 @main() #0 {
  %1 = alloca i32, align 4
  %2 = alloca i32, align 4
  %3 = alloca i32, align 4
  %4 = alloca i32, align 4
  %5 = alloca i32, align 4
  %6 = alloca i32, align 4
  %7 = alloca i32, align 4
  %8 = alloca [500 x i8], align 16
  %9 = alloca [500 x i8], align 16
  %10 = alloca [500 x i8], align 16
  %11 = alloca i32, align 4
  store i32 0, i32* %1, align 4
  %12 = getelementptr inbounds [500 x i8], [500 x i8]* %8, i64 0, i64 0
  %13 = call i32 (i8*, ...) bitcast (i32 (...)* @gets to i32 (i8*, ...)*)(i8* %12)
  %14 = getelementptr inbounds [500 x i8], [500 x i8]* %8, i64 0, i64 0
  %15 = call i64 @strlen(i8* %14) #4
  %16 = trunc i64 %15 to i32
  store i32 %16, i32* %2, align 4
  store i32 2, i32* %11, align 4
  br label %17

17:                                               ; preds = %59, %0
  %18 = load i32, i32* %11, align 4
  %19 = load i32, i32* %2, align 4
  %20 = icmp sle i32 %18, %19
  br i1 %20, label %21, label %62

21:                                               ; preds = %17
  store i32 0, i32* %6, align 4
  br label %22

22:                                               ; preds = %55, %21
  %23 = load i32, i32* %6, align 4
  %24 = load i32, i32* %2, align 4
  %25 = load i32, i32* %11, align 4
  %26 = sub nsw i32 %24, %25
  %27 = icmp sle i32 %23, %26
  br i1 %27, label %28, label %58

28:                                               ; preds = %22
  %29 = getelementptr inbounds [500 x i8], [500 x i8]* %9, i64 0, i64 0
  %30 = getelementptr inbounds [500 x i8], [500 x i8]* %8, i64 0, i64 0
  %31 = load i32, i32* %6, align 4
  %32 = sext i32 %31 to i64
  %33 = getelementptr inbounds i8, i8* %30, i64 %32
  %34 = load i32, i32* %11, align 4
  %35 = sext i32 %34 to i64
  %36 = call i8* @strncpy(i8* %29, i8* %33, i64 %35) #5
  %37 = load i32, i32* %11, align 4
  %38 = sext i32 %37 to i64
  %39 = getelementptr inbounds [500 x i8], [500 x i8]* %9, i64 0, i64 %38
  store i8 0, i8* %39, align 1
  %40 = getelementptr inbounds [500 x i8], [500 x i8]* %10, i64 0, i64 0
  %41 = getelementptr inbounds [500 x i8], [500 x i8]* %9, i64 0, i64 0
  %42 = call i8* @strcpy(i8* %40, i8* %41) #5
  %43 = getelementptr inbounds [500 x i8], [500 x i8]* %10, i64 0, i64 0
  call void @sssss(i8* %43)
  %44 = load i32, i32* %11, align 4
  %45 = sext i32 %44 to i64
  %46 = getelementptr inbounds [500 x i8], [500 x i8]* %10, i64 0, i64 %45
  store i8 0, i8* %46, align 1
  %47 = getelementptr inbounds [500 x i8], [500 x i8]* %9, i64 0, i64 0
  %48 = getelementptr inbounds [500 x i8], [500 x i8]* %10, i64 0, i64 0
  %49 = call i32 @strcmp(i8* %47, i8* %48) #4
  %50 = icmp eq i32 %49, 0
  br i1 %50, label %51, label %54

51:                                               ; preds = %28
  %52 = getelementptr inbounds [500 x i8], [500 x i8]* %9, i64 0, i64 0
  %53 = call i32 (i8*, ...) @printf(i8* getelementptr inbounds ([4 x i8], [4 x i8]* @.str, i64 0, i64 0), i8* %52)
  br label %54

54:                                               ; preds = %51, %28
  br label %55

55:                                               ; preds = %54
  %56 = load i32, i32* %6, align 4
  %57 = add nsw i32 %56, 1
  store i32 %57, i32* %6, align 4
  br label %22

58:                                               ; preds = %22
  br label %59

59:                                               ; preds = %58
  %60 = load i32, i32* %11, align 4
  %61 = add nsw i32 %60, 1
  store i32 %61, i32* %11, align 4
  br label %17

62:                                               ; preds = %17
  ret i32 0
}

declare dso_local i32 @gets(...) #1

; Function Attrs: nounwind readonly
declare dso_local i64 @strlen(i8*) #2

; Function Attrs: nounwind
declare dso_local i8* @strncpy(i8*, i8*, i64) #3

; Function Attrs: nounwind
declare dso_local i8* @strcpy(i8*, i8*) #3

; Function Attrs: noinline nounwind uwtable
define dso_local void @sssss(i8* %0) #0 {
  %2 = alloca i8*, align 8
  %3 = alloca i32, align 4
  %4 = alloca i32, align 4
  %5 = alloca i8, align 1
  store i8* %0, i8** %2, align 8
  %6 = load i8*, i8** %2, align 8
  %7 = call i64 @strlen(i8* %6) #4
  %8 = trunc i64 %7 to i32
  store i32 %8, i32* %3, align 4
  store i32 0, i32* %4, align 4
  br label %9

9:                                                ; preds = %41, %1
  %10 = load i32, i32* %4, align 4
  %11 = load i32, i32* %3, align 4
  %12 = add nsw i32 %11, 1
  %13 = sdiv i32 %12, 2
  %14 = icmp slt i32 %10, %13
  br i1 %14, label %15, label %44

15:                                               ; preds = %9
  %16 = load i8*, i8** %2, align 8
  %17 = load i32, i32* %4, align 4
  %18 = sext i32 %17 to i64
  %19 = getelementptr inbounds i8, i8* %16, i64 %18
  %20 = load i8, i8* %19, align 1
  store i8 %20, i8* %5, align 1
  %21 = load i8*, i8** %2, align 8
  %22 = load i32, i32* %3, align 4
  %23 = sub nsw i32 %22, 1
  %24 = load i32, i32* %4, align 4
  %25 = sub nsw i32 %23, %24
  %26 = sext i32 %25 to i64
  %27 = getelementptr inbounds i8, i8* %21, i64 %26
  %28 = load i8, i8* %27, align 1
  %29 = load i8*, i8** %2, align 8
  %30 = load i32, i32* %4, align 4
  %31 = sext i32 %30 to i64
  %32 = getelementptr inbounds i8, i8* %29, i64 %31
  store i8 %28, i8* %32, align 1
  %33 = load i8, i8* %5, align 1
  %34 = load i8*, i8** %2, align 8
  %35 = load i32, i32* %3, align 4
  %36 = sub nsw i32 %35, 1
  %37 = load i32, i32* %4, align 4
  %38 = sub nsw i32 %36, %37
  %39 = sext i32 %38 to i64
  %40 = getelementptr inbounds i8, i8* %34, i64 %39
  store i8 %33, i8* %40, align 1
  br label %41

41:                                               ; preds = %15
  %42 = load i32, i32* %4, align 4
  %43 = add nsw i32 %42, 1
  store i32 %43, i32* %4, align 4
  br label %9

44:                                               ; preds = %9
  ret void
}

; Function Attrs: nounwind readonly
declare dso_local i32 @strcmp(i8*, i8*) #2

declare dso_local i32 @printf(i8*, ...) #1


!llvm.module.flags = !{!0}
!llvm.ident = !{!1}

!0 = !{i32 1, !"wchar_size", i32 4}
!1 = !{!"clang version 10.0.0-4ubuntu1 "}
